target datalayout = "e-m:e-p270:32:32-p271:32:32-p272:64:64-i64:64-i128:128-f80:128-n8:16:32:64-S128"
target triple = "x86_64-pc-linux-gnu"

; Function Attrs: nounwind uwtable
define internal i32 @tls1_prf(ptr noundef %0, ptr noundef %1, i64 noundef %2, ptr noundef %3, i64 noundef %4, ptr noundef %5, i64 noundef %6, ptr noundef %7, i64 noundef %8, ptr noundef %9, i64 noundef %10) #0 {
  %12 = alloca i32, align 4
  %13 = alloca ptr, align 8
  %14 = alloca ptr, align 8
  %15 = alloca i64, align 8
  %16 = alloca ptr, align 8
  %17 = alloca i64, align 8
  %18 = alloca ptr, align 8
  %19 = alloca i64, align 8
  %20 = alloca ptr, align 8
  %21 = alloca i64, align 8
  %22 = alloca ptr, align 8
  %23 = alloca i64, align 8
  %24 = alloca i32, align 4
  %25 = alloca i64, align 8
  %26 = alloca i32, align 4
  store ptr %0, ptr %13, align 8, !tbaa !6
  store ptr %1, ptr %14, align 8, !tbaa !57
  store i64 %2, ptr %15, align 8, !tbaa !53
  store ptr %3, ptr %16, align 8, !tbaa !57
  store i64 %4, ptr %17, align 8, !tbaa !53
  store ptr %5, ptr %18, align 8, !tbaa !57
  store i64 %6, ptr %19, align 8, !tbaa !53
  store ptr %7, ptr %20, align 8, !tbaa !57
  store i64 %8, ptr %21, align 8, !tbaa !53
  store ptr %9, ptr %22, align 8, !tbaa !57
  store i64 %10, ptr %23, align 8, !tbaa !53
  %27 = load i64, ptr %15, align 8, !tbaa !53
  %28 = icmp eq i64 %27, 0
  br i1 %28, label %29, label %30

29:                                               ; preds = %11
  store i32 1, ptr %12, align 4
  br label %84

30:                                               ; preds = %11
  %31 = load ptr, ptr %14, align 8, !tbaa !57
  %32 = load i64, ptr %15, align 8, !tbaa !53
  call void @llvm.memset.p0.i64(ptr align 1 %31, i8 0, i64 %32, i1 false)
  call void @llvm.lifetime.start.p0(i64 4, ptr %24) #7
  %33 = load ptr, ptr %13, align 8, !tbaa !6
  %34 = call i32 @ssl_get_algorithm_prf(ptr noundef %33)
  store i32 %34, ptr %24, align 4, !tbaa !11
  %35 = load i32, ptr %24, align 4, !tbaa !11
  %36 = icmp eq i32 %35, 1
  br i1 %36, label %37, label %66

37:                                               ; preds = %30
  call void @llvm.lifetime.start.p0(i64 8, ptr %25) #7
  %38 = load i64, ptr %17, align 8, !tbaa !53
  %39 = load i64, ptr %17, align 8, !tbaa !53
  %40 = udiv i64 %39, 2
  %41 = sub i64 %38, %40
  store i64 %41, ptr %25, align 8, !tbaa !53
  %42 = load ptr, ptr %14, align 8, !tbaa !57
  %43 = load i64, ptr %15, align 8, !tbaa !53
  %44 = call ptr @EVP_md5()
  %45 = load ptr, ptr %16, align 8, !tbaa !57
  %46 = load i64, ptr %25, align 8, !tbaa !53
  %47 = load ptr, ptr %18, align 8, !tbaa !57
  %48 = load i64, ptr %19, align 8, !tbaa !53
  %49 = load ptr, ptr %20, align 8, !tbaa !57
  %50 = load i64, ptr %21, align 8, !tbaa !53
  %51 = load ptr, ptr %22, align 8, !tbaa !57
  %52 = load i64, ptr %23, align 8, !tbaa !53
  %53 = call i32 @tls1_P_hash(ptr noundef %42, i64 noundef %43, ptr noundef %44, ptr noundef %45, i64 noundef %46, ptr noundef %47, i64 noundef %48, ptr noundef %49, i64 noundef %50, ptr noundef %51, i64 noundef %52)
  %54 = icmp ne i32 %53, 0
  br i1 %54, label %56, label %55

55:                                               ; preds = %37
  store i32 0, ptr %12, align 4
  store i32 1, ptr %26, align 4
  br label %63

56:                                               ; preds = %37
  %57 = load ptr, ptr %16, align 8, !tbaa !57
  %58 = load i64, ptr %17, align 8, !tbaa !53
  %59 = load i64, ptr %25, align 8, !tbaa !53
  %60 = sub i64 %58, %59
  %61 = getelementptr inbounds nuw i8, ptr %57, i64 %60
  store ptr %61, ptr %16, align 8, !tbaa !57
  %62 = load i64, ptr %25, align 8, !tbaa !53
  store i64 %62, ptr %17, align 8, !tbaa !53
  store i32 0, ptr %26, align 4
  br label %63

63:                                               ; preds = %56, %55
  call void @llvm.lifetime.end.p0(i64 8, ptr %25) #7
  %64 = load i32, ptr %26, align 4
  switch i32 %64, label %83 [
    i32 0, label %65
  ]

65:                                               ; preds = %63
  br label %66

66:                                               ; preds = %65, %30
  %67 = load ptr, ptr %14, align 8, !tbaa !57
  %68 = load i64, ptr %15, align 8, !tbaa !53
  %69 = load i32, ptr %24, align 4, !tbaa !11
  %70 = call ptr @ssl_get_handshake_digest(i32 noundef %69)
  %71 = load ptr, ptr %16, align 8, !tbaa !57
  %72 = load i64, ptr %17, align 8, !tbaa !53
  %73 = load ptr, ptr %18, align 8, !tbaa !57
  %74 = load i64, ptr %19, align 8, !tbaa !53
  %75 = load ptr, ptr %20, align 8, !tbaa !57
  %76 = load i64, ptr %21, align 8, !tbaa !53
  %77 = load ptr, ptr %22, align 8, !tbaa !57
  %78 = load i64, ptr %23, align 8, !tbaa !53
  %79 = call i32 @tls1_P_hash(ptr noundef %67, i64 noundef %68, ptr noundef %70, ptr noundef %71, i64 noundef %72, ptr noundef %73, i64 noundef %74, ptr noundef %75, i64 noundef %76, ptr noundef %77, i64 noundef %78)
  %80 = icmp ne i32 %79, 0
  br i1 %80, label %82, label %81

81:                                               ; preds = %66
  store i32 0, ptr %12, align 4
  store i32 1, ptr %26, align 4
  br label %83

82:                                               ; preds = %66
  store i32 1, ptr %12, align 4
  store i32 1, ptr %26, align 4
  br label %83

83:                                               ; preds = %82, %81, %63
  call void @llvm.lifetime.end.p0(i64 4, ptr %24) #7
  br label %84

84:                                               ; preds = %83, %29
  %85 = load i32, ptr %12, align 4
  ret i32 %85
}