; Function Attrs: nounwind uwtable
define internal range(i32 0, 2) i32 @tls1_prf(ptr noundef %0, ptr noundef captures(none) %1, i64 noundef %2, ptr noundef %3, i64 noundef %4, ptr noundef %5, i64 noundef %6, ptr noundef %7, i64 noundef %8, ptr noundef %9, i64 noundef %10) #0 {
  %12 = icmp eq i64 %2, 0
  br i1 %12, label %25, label %13

13:                                               ; preds = %11
  tail call void @llvm.memset.p0.i64(ptr align 1 %1, i8 0, i64 %2, i1 false)
  %14 = tail call i32 @ssl_get_algorithm_prf(ptr noundef %0) #8
  %15 = icmp eq i32 %14, 1
  br i1 %15, label %16, label %22

16:                                               ; preds = %13
  %17 = lshr i64 %4, 1
  %18 = sub i64 %4, %17
  %19 = tail call ptr @EVP_md5() #8
  %20 = tail call fastcc i32 @tls1_P_hash(ptr noundef %1, i64 noundef %2, ptr noundef %19, ptr noundef %3, i64 noundef %18, ptr noundef %5, i64 noundef %6, ptr noundef %7, i64 noundef %8, ptr noundef %9, i64 noundef %10)
  %.not.not = icmp eq i32 %20, 0
  %21 = getelementptr inbounds nuw i8, ptr %3, i64 %17
  br i1 %.not.not, label %25, label %22

22:                                               ; preds = %16, %13
  %.036 = phi i64 [ %18, %16 ], [ %4, %13 ]
  %.034 = phi ptr [ %21, %16 ], [ %3, %13 ]
  %23 = tail call ptr @ssl_get_handshake_digest(i32 noundef %14) #8
  %24 = tail call fastcc i32 @tls1_P_hash(ptr noundef %1, i64 noundef %2, ptr noundef %23, ptr noundef %.034, i64 noundef %.036, ptr noundef %5, i64 noundef %6, ptr noundef %7, i64 noundef %8, ptr noundef %9, i64 noundef %10)
  br label %25

25:                                               ; preds = %16, %22, %11
  %.033 = phi i32 [ 1, %11 ], [ 0, %16 ], [ %24, %22 ]
  ret i32 %.033
}